; Function Attrs: mustprogress nounwind uwtable
define dso_local void @_ZN4node4quic8Endpoint3UDP5UnrefEv(ptr nocapture noundef nonnull readonly align 8 dereferenceable(24) %this) local_unnamed_addr #3 align 2 {
entry:
  %impl_.i = getelementptr inbounds i8, ptr %this, i64 8
  %0 = load ptr, ptr %impl_.i, align 8
  %cmp.i.not.i = icmp eq ptr %0, null
  br i1 %cmp.i.not.i, label %if.end, label %if.then

if.then:                                          ; preds = %entry
  %handle_ = getelementptr inbounds i8, ptr %0, i64 88
  tail call void @uv_unref(ptr noundef nonnull %handle_) #21
  br label %if.end

if.end:                                           ; preds = %if.then, %entry
  ret void
}